target datalayout = "e-m:e-p270:32:32-p271:32:32-p272:64:64-i64:64-i128:128-f80:128-n8:16:32:64-S128"
target triple = "x86_64-unknown-linux-gnu"

%"class.icu_75::UObject" = type { ptr }
%"class.icu_75::UnicodeString" = type { %"class.icu_75::Replaceable", %"union.icu_75::UnicodeString::StackBufferOrFields" }
%"class.icu_75::Replaceable" = type { %"class.icu_75::UObject" }
%"union.icu_75::UnicodeString::StackBufferOrFields" = type { %struct.anon.0, [32 x i8] }
%struct.anon.0 = type { i16, i32, i32, ptr }
%"class.icu_75::FieldPosition" = type <{ %"class.icu_75::UObject", i32, i32, i32, [4 x i8] }>
%"class.icu_75::Char16Ptr" = type { ptr }
%struct.UFieldPosition = type { i32, i32, i32 }
%struct.anon = type { i16, [27 x i16] }

@_ZTVN6icu_7513UnicodeStringE = external unnamed_addr constant { [13 x ptr] }, align 8
@_ZTVN6icu_7511ReplaceableE = external unnamed_addr constant { [13 x ptr] }, align 8
@_ZTVN6icu_757UObjectE = external unnamed_addr constant { [5 x ptr] }, align 8
@_ZTVN6icu_7513FieldPositionE = external unnamed_addr constant { [5 x ptr] }, align 8

; Function Attrs: mustprogress nounwind uwtable
define linkonce_odr void @_ZN6icu_757UObjectC2Ev(ptr noundef nonnull align 8 dereferenceable(8) %this) unnamed_addr #1 comdat align 2 {
entry:
  %this.addr = alloca ptr, align 8
  store ptr %this, ptr %this.addr, align 8
  %this1 = load ptr, ptr %this.addr, align 8
  store ptr getelementptr inbounds ({ [5 x ptr] }, ptr @_ZTVN6icu_757UObjectE, i32 0, i32 0, i32 2), ptr %this1, align 8
  ret void
}

; Function Attrs: mustprogress nounwind uwtable
define linkonce_odr void @_ZN6icu_7511ReplaceableC2Ev(ptr noundef nonnull align 8 dereferenceable(8) %this) unnamed_addr #1 comdat align 2 {
entry:
  %this.addr = alloca ptr, align 8
  store ptr %this, ptr %this.addr, align 8
  %this1 = load ptr, ptr %this.addr, align 8
  call void @_ZN6icu_757UObjectC2Ev(ptr noundef nonnull align 8 dereferenceable(8) %this1) #8
  store ptr getelementptr inbounds ({ [13 x ptr] }, ptr @_ZTVN6icu_7511ReplaceableE, i32 0, i32 0, i32 2), ptr %this1, align 8
  ret void
}

; Function Attrs: mustprogress nounwind uwtable
define linkonce_odr void @_ZN6icu_759Char16PtrD2Ev(ptr noundef nonnull align 8 dereferenceable(8) %this) unnamed_addr #1 comdat align 2 {
entry:
  %this.addr = alloca ptr, align 8
  store ptr %this, ptr %this.addr, align 8
  %this1 = load ptr, ptr %this.addr, align 8
  %p_ = getelementptr inbounds %"class.icu_75::Char16Ptr", ptr %this1, i32 0, i32 0
  %0 = load ptr, ptr %p_, align 8
  call void asm sideeffect "", "rm,~{memory},~{dirflag},~{fpsr},~{flags}"(ptr %0) #8, !srcloc !4
  ret void
}

; Function Attrs: mustprogress nounwind uwtable
define linkonce_odr void @_ZN6icu_759Char16PtrC2EPDs(ptr noundef nonnull align 8 dereferenceable(8) %this, ptr noundef %p) unnamed_addr #1 comdat align 2 {
entry:
  %this.addr = alloca ptr, align 8
  %p.addr = alloca ptr, align 8
  store ptr %this, ptr %this.addr, align 8
  store ptr %p, ptr %p.addr, align 8
  %this1 = load ptr, ptr %this.addr, align 8
  %p_ = getelementptr inbounds %"class.icu_75::Char16Ptr", ptr %this1, i32 0, i32 0
  %0 = load ptr, ptr %p.addr, align 8
  store ptr %0, ptr %p_, align 8
  ret void
}

; Function Attrs: mustprogress nounwind uwtable
define linkonce_odr noundef i32 @_ZNK6icu_7513FieldPosition11getEndIndexEv(ptr noundef nonnull align 8 dereferenceable(20) %this) #1 comdat align 2 {
entry:
  %this.addr = alloca ptr, align 8
  store ptr %this, ptr %this.addr, align 8
  %this1 = load ptr, ptr %this.addr, align 8
  %fEndIndex = getelementptr inbounds %"class.icu_75::FieldPosition", ptr %this1, i32 0, i32 3
  %0 = load i32, ptr %fEndIndex, align 8
  ret i32 %0
}

; Function Attrs: mustprogress nounwind uwtable
define linkonce_odr noundef i32 @_ZNK6icu_7513FieldPosition13getBeginIndexEv(ptr noundef nonnull align 8 dereferenceable(20) %this) #1 comdat align 2 {
entry:
  %this.addr = alloca ptr, align 8
  store ptr %this, ptr %this.addr, align 8
  %this1 = load ptr, ptr %this.addr, align 8
  %fBeginIndex = getelementptr inbounds %"class.icu_75::FieldPosition", ptr %this1, i32 0, i32 2
  %0 = load i32, ptr %fBeginIndex, align 4
  ret i32 %0
}

; Function Attrs: mustprogress nounwind uwtable
define linkonce_odr void @_ZN6icu_7513FieldPosition8setFieldEi(ptr noundef nonnull align 8 dereferenceable(20) %this, i32 noundef %f) #1 comdat align 2 {
entry:
  %this.addr = alloca ptr, align 8
  %f.addr = alloca i32, align 4
  store ptr %this, ptr %this.addr, align 8
  store i32 %f, ptr %f.addr, align 4
  %this1 = load ptr, ptr %this.addr, align 8
  %0 = load i32, ptr %f.addr, align 4
  %fField = getelementptr inbounds %"class.icu_75::FieldPosition", ptr %this1, i32 0, i32 1
  store i32 %0, ptr %fField, align 8
  ret void
}

; Function Attrs: mustprogress nounwind uwtable
define linkonce_odr void @_ZN6icu_7513FieldPositionC2Ev(ptr noundef nonnull align 8 dereferenceable(20) %this) unnamed_addr #1 comdat align 2 {
entry:
  %this.addr = alloca ptr, align 8
  store ptr %this, ptr %this.addr, align 8
  %this1 = load ptr, ptr %this.addr, align 8
  %0 = getelementptr inbounds i8, ptr %this1, i64 0
  call void @llvm.memset.p0.i64(ptr align 8 %0, i8 0, i64 8, i1 false)
  call void @_ZN6icu_757UObjectC2Ev(ptr noundef nonnull align 8 dereferenceable(8) %this1) #8
  store ptr getelementptr inbounds ({ [5 x ptr] }, ptr @_ZTVN6icu_7513FieldPositionE, i32 0, i32 0, i32 2), ptr %this1, align 8
  %fField = getelementptr inbounds %"class.icu_75::FieldPosition", ptr %this1, i32 0, i32 1
  store i32 -1, ptr %fField, align 8
  %fBeginIndex = getelementptr inbounds %"class.icu_75::FieldPosition", ptr %this1, i32 0, i32 2
  store i32 0, ptr %fBeginIndex, align 4
  %fEndIndex = getelementptr inbounds %"class.icu_75::FieldPosition", ptr %this1, i32 0, i32 3
  store i32 0, ptr %fEndIndex, align 8
  ret void
}

; Function Attrs: mustprogress uwtable
define linkonce_odr void @_ZN6icu_7513UnicodeStringC2Ev(ptr noundef nonnull align 8 dereferenceable(64) %this) unnamed_addr #0 comdat align 2 {
entry:
  %this.addr = alloca ptr, align 8
  store ptr %this, ptr %this.addr, align 8
  %this1 = load ptr, ptr %this.addr, align 8
  call void @_ZN6icu_7511ReplaceableC2Ev(ptr noundef nonnull align 8 dereferenceable(8) %this1)
  store ptr getelementptr inbounds ({ [13 x ptr] }, ptr @_ZTVN6icu_7513UnicodeStringE, i32 0, i32 0, i32 2), ptr %this1, align 8
  %fUnion2 = getelementptr inbounds %"class.icu_75::UnicodeString", ptr %this1, i32 0, i32 1
  %fLengthAndFlags = getelementptr inbounds %struct.anon, ptr %fUnion2, i32 0, i32 0
  store i16 2, ptr %fLengthAndFlags, align 8
  ret void
}

; Function Attrs: mustprogress nounwind uwtable
define internal noundef signext i8 @_ZL9U_FAILURE10UErrorCode(i32 noundef %code) #1 {
entry:
  %code.addr = alloca i32, align 4
  store i32 %code, ptr %code.addr, align 4
  %0 = load i32, ptr %code.addr, align 4
  %cmp = icmp sgt i32 %0, 0
  %conv = zext i1 %cmp to i8
  ret i8 %conv
}

; Function Attrs: mustprogress uwtable
define i32 @unum_formatInt64_75(ptr noundef %fmt, i64 noundef %number, ptr noundef %result, i32 noundef %resultLength, ptr noundef %pos, ptr noundef %status) #0 personality ptr @__gxx_personality_v0 {
entry:
  %retval = alloca i32, align 4
  %fmt.addr = alloca ptr, align 8
  %number.addr = alloca i64, align 8
  %result.addr = alloca ptr, align 8
  %resultLength.addr = alloca i32, align 4
  %pos.addr = alloca ptr, align 8
  %status.addr = alloca ptr, align 8
  %res = alloca %"class.icu_75::UnicodeString", align 8
  %exn.slot = alloca ptr, align 8
  %ehselector.slot = alloca i32, align 4
  %fp = alloca %"class.icu_75::FieldPosition", align 8
  %agg.tmp = alloca %"class.icu_75::Char16Ptr", align 8
  store ptr %fmt, ptr %fmt.addr, align 8
  store i64 %number, ptr %number.addr, align 8
  store ptr %result, ptr %result.addr, align 8
  store i32 %resultLength, ptr %resultLength.addr, align 4
  store ptr %pos, ptr %pos.addr, align 8
  store ptr %status, ptr %status.addr, align 8
  %0 = load ptr, ptr %status.addr, align 8
  %1 = load i32, ptr %0, align 4
  %call = call noundef signext i8 @_ZL9U_FAILURE10UErrorCode(i32 noundef %1)
  %tobool = icmp ne i8 %call, 0
  br i1 %tobool, label %if.then, label %if.end

if.then:                                          ; preds = %entry
  store i32 -1, ptr %retval, align 4
  br label %return

if.end:                                           ; preds = %entry
  call void @_ZN6icu_7513UnicodeStringC2Ev(ptr noundef nonnull align 8 dereferenceable(64) %res)
  %2 = load ptr, ptr %result.addr, align 8
  %cmp = icmp eq ptr %2, null
  br i1 %cmp, label %land.lhs.true, label %if.then2

land.lhs.true:                                    ; preds = %if.end
  %3 = load i32, ptr %resultLength.addr, align 4
  %cmp1 = icmp eq i32 %3, 0
  br i1 %cmp1, label %if.end4, label %if.then2

if.then2:                                         ; preds = %land.lhs.true, %if.end
  %4 = load ptr, ptr %result.addr, align 8
  %5 = load i32, ptr %resultLength.addr, align 4
  %call3 = invoke noundef nonnull align 8 dereferenceable(64) ptr @_ZN6icu_7513UnicodeString5setToEPDsii(ptr noundef nonnull align 8 dereferenceable(64) %res, ptr noundef %4, i32 noundef 0, i32 noundef %5)
          to label %invoke.cont unwind label %lpad

invoke.cont:                                      ; preds = %if.then2
  br label %if.end4

lpad:                                             ; preds = %if.end4, %if.then2
  %6 = landingpad { ptr, i32 }
          cleanup
  %7 = extractvalue { ptr, i32 } %6, 0
  store ptr %7, ptr %exn.slot, align 8
  %8 = extractvalue { ptr, i32 } %6, 1
  store i32 %8, ptr %ehselector.slot, align 4
  br label %ehcleanup24

if.end4:                                          ; preds = %invoke.cont, %land.lhs.true
  invoke void @_ZN6icu_7513FieldPositionC2Ev(ptr noundef nonnull align 8 dereferenceable(20) %fp)
          to label %invoke.cont5 unwind label %lpad

invoke.cont5:                                     ; preds = %if.end4
  %9 = load ptr, ptr %pos.addr, align 8
  %cmp6 = icmp ne ptr %9, null
  br i1 %cmp6, label %if.then7, label %if.end10

if.then7:                                         ; preds = %invoke.cont5
  %10 = load ptr, ptr %pos.addr, align 8
  %field = getelementptr inbounds %struct.UFieldPosition, ptr %10, i32 0, i32 0
  %11 = load i32, ptr %field, align 4
  invoke void @_ZN6icu_7513FieldPosition8setFieldEi(ptr noundef nonnull align 8 dereferenceable(20) %fp, i32 noundef %11)
          to label %invoke.cont9 unwind label %lpad8

invoke.cont9:                                     ; preds = %if.then7
  br label %if.end10

lpad8:                                            ; preds = %if.end19, %invoke.cont15, %if.then14, %if.end10, %if.then7
  %12 = landingpad { ptr, i32 }
          cleanup
  %13 = extractvalue { ptr, i32 } %12, 0
  store ptr %13, ptr %exn.slot, align 8
  %14 = extractvalue { ptr, i32 } %12, 1
  store i32 %14, ptr %ehselector.slot, align 4
  br label %ehcleanup

if.end10:                                         ; preds = %invoke.cont9, %invoke.cont5
  %15 = load ptr, ptr %fmt.addr, align 8
  %16 = load i64, ptr %number.addr, align 8
  %17 = load ptr, ptr %status.addr, align 8
  %vtable = load ptr, ptr %15, align 8
  %vfn = getelementptr inbounds ptr, ptr %vtable, i64 15
  %18 = load ptr, ptr %vfn, align 8
  %call12 = invoke noundef nonnull align 8 dereferenceable(64) ptr %18(ptr noundef nonnull align 8 dereferenceable(356) %15, i64 noundef %16, ptr noundef nonnull align 8 dereferenceable(64) %res, ptr noundef nonnull align 8 dereferenceable(20) %fp, ptr noundef nonnull align 4 dereferenceable(4) %17)
          to label %invoke.cont11 unwind label %lpad8

invoke.cont11:                                    ; preds = %if.end10
  %19 = load ptr, ptr %pos.addr, align 8
  %cmp13 = icmp ne ptr %19, null
  br i1 %cmp13, label %if.then14, label %if.end19

if.then14:                                        ; preds = %invoke.cont11
  %call16 = invoke noundef i32 @_ZNK6icu_7513FieldPosition13getBeginIndexEv(ptr noundef nonnull align 8 dereferenceable(20) %fp)
          to label %invoke.cont15 unwind label %lpad8

invoke.cont15:                                    ; preds = %if.then14
  %20 = load ptr, ptr %pos.addr, align 8
  %beginIndex = getelementptr inbounds %struct.UFieldPosition, ptr %20, i32 0, i32 1
  store i32 %call16, ptr %beginIndex, align 4
  %call18 = invoke noundef i32 @_ZNK6icu_7513FieldPosition11getEndIndexEv(ptr noundef nonnull align 8 dereferenceable(20) %fp)
          to label %invoke.cont17 unwind label %lpad8

invoke.cont17:                                    ; preds = %invoke.cont15
  %21 = load ptr, ptr %pos.addr, align 8
  %endIndex = getelementptr inbounds %struct.UFieldPosition, ptr %21, i32 0, i32 2
  store i32 %call18, ptr %endIndex, align 4
  br label %if.end19

if.end19:                                         ; preds = %invoke.cont17, %invoke.cont11
  %22 = load ptr, ptr %result.addr, align 8
  invoke void @_ZN6icu_759Char16PtrC2EPDs(ptr noundef nonnull align 8 dereferenceable(8) %agg.tmp, ptr noundef %22)
          to label %invoke.cont20 unwind label %lpad8

invoke.cont20:                                    ; preds = %if.end19
  %23 = load i32, ptr %resultLength.addr, align 4
  %24 = load ptr, ptr %status.addr, align 8
  %call23 = invoke noundef i32 @_ZNK6icu_7513UnicodeString7extractENS_9Char16PtrEiR10UErrorCode(ptr noundef nonnull align 8 dereferenceable(64) %res, ptr noundef %agg.tmp, i32 noundef %23, ptr noundef nonnull align 4 dereferenceable(4) %24)
          to label %invoke.cont22 unwind label %lpad21

invoke.cont22:                                    ; preds = %invoke.cont20
  store i32 %call23, ptr %retval, align 4
  call void @_ZN6icu_759Char16PtrD2Ev(ptr noundef nonnull align 8 dereferenceable(8) %agg.tmp) #8
  call void @_ZN6icu_7513FieldPositionD1Ev(ptr noundef nonnull align 8 dereferenceable(20) %fp) #8
  call void @_ZN6icu_7513UnicodeStringD1Ev(ptr noundef nonnull align 8 dereferenceable(64) %res) #8
  br label %return

lpad21:                                           ; preds = %invoke.cont20
  %25 = landingpad { ptr, i32 }
          cleanup
  %26 = extractvalue { ptr, i32 } %25, 0
  store ptr %26, ptr %exn.slot, align 8
  %27 = extractvalue { ptr, i32 } %25, 1
  store i32 %27, ptr %ehselector.slot, align 4
  call void @_ZN6icu_759Char16PtrD2Ev(ptr noundef nonnull align 8 dereferenceable(8) %agg.tmp) #8
  br label %ehcleanup

ehcleanup:                                        ; preds = %lpad21, %lpad8
  call void @_ZN6icu_7513FieldPositionD1Ev(ptr noundef nonnull align 8 dereferenceable(20) %fp) #8
  br label %ehcleanup24

ehcleanup24:                                      ; preds = %ehcleanup, %lpad
  call void @_ZN6icu_7513UnicodeStringD1Ev(ptr noundef nonnull align 8 dereferenceable(64) %res) #8
  br label %eh.resume

return:                                           ; preds = %invoke.cont22, %if.then
  %28 = load i32, ptr %retval, align 4
  ret i32 %28

eh.resume:                                        ; preds = %ehcleanup24
  %exn = load ptr, ptr %exn.slot, align 8
  %sel = load i32, ptr %ehselector.slot, align 4
  %lpad.val = insertvalue { ptr, i32 } poison, ptr %exn, 0
  %lpad.val25 = insertvalue { ptr, i32 } %lpad.val, i32 %sel, 1
  resume { ptr, i32 } %lpad.val25
}