; Function Attrs: mustprogress uwtable
define noundef i32 @unum_formatInt64_75(ptr noundef %fmt, i64 noundef %number, ptr noundef %result, i32 noundef %resultLength, ptr noundef %pos, ptr noundef %status) local_unnamed_addr #0 personality ptr @__gxx_personality_v0 {
entry:
  %res = alloca %"class.icu_75::UnicodeString", align 8
  %fp = alloca %"class.icu_75::FieldPosition", align 8
  %agg.tmp = alloca %"class.icu_75::Char16Ptr", align 8
  %0 = load i32, ptr %status, align 4
  %cmp.i = icmp slt i32 %0, 1
  br i1 %cmp.i, label %if.end, label %return

if.end:                                           ; preds = %entry
  store ptr getelementptr inbounds ({ [13 x ptr] }, ptr @_ZTVN6icu_7513UnicodeStringE, i64 0, i32 0, i64 2), ptr %res, align 8
  %fUnion2.i = getelementptr inbounds i8, ptr %res, i64 8
  store i16 2, ptr %fUnion2.i, align 8
  %cmp = icmp eq ptr %result, null
  %cmp1 = icmp eq i32 %resultLength, 0
  %or.cond = and i1 %cmp, %cmp1
  br i1 %or.cond, label %if.end4, label %if.then2

if.then2:                                         ; preds = %if.end
  %call3 = invoke noundef nonnull align 8 dereferenceable(64) ptr @_ZN6icu_7513UnicodeString5setToEPDsii(ptr noundef nonnull align 8 dereferenceable(64) %res, ptr noundef %result, i32 noundef 0, i32 noundef %resultLength)
          to label %if.end4 unwind label %lpad

lpad:                                             ; preds = %if.then2
  %1 = landingpad { ptr, i32 }
          cleanup
  br label %ehcleanup24

if.end4:                                          ; preds = %if.then2, %if.end
  store ptr getelementptr inbounds ({ [5 x ptr] }, ptr @_ZTVN6icu_7513FieldPositionE, i64 0, i32 0, i64 2), ptr %fp, align 8
  %fField.i = getelementptr inbounds i8, ptr %fp, i64 8
  store i32 -1, ptr %fField.i, align 8
  %fBeginIndex.i = getelementptr inbounds i8, ptr %fp, i64 12
  store i32 0, ptr %fBeginIndex.i, align 4
  %fEndIndex.i = getelementptr inbounds i8, ptr %fp, i64 16
  store i32 0, ptr %fEndIndex.i, align 8
  %cmp6.not = icmp eq ptr %pos, null
  br i1 %cmp6.not, label %if.end10, label %if.then7

if.then7:                                         ; preds = %if.end4
  %2 = load i32, ptr %pos, align 4
  store i32 %2, ptr %fField.i, align 8
  br label %if.end10

lpad8:                                            ; preds = %if.end10
  %3 = landingpad { ptr, i32 }
          cleanup
  br label %ehcleanup

if.end10:                                         ; preds = %if.then7, %if.end4
  %vtable = load ptr, ptr %fmt, align 8
  %vfn = getelementptr inbounds i8, ptr %vtable, i64 120
  %4 = load ptr, ptr %vfn, align 8
  %call12 = invoke noundef nonnull align 8 dereferenceable(64) ptr %4(ptr noundef nonnull align 8 dereferenceable(356) %fmt, i64 noundef %number, ptr noundef nonnull align 8 dereferenceable(64) %res, ptr noundef nonnull align 8 dereferenceable(20) %fp, ptr noundef nonnull align 4 dereferenceable(4) %status)
          to label %invoke.cont11 unwind label %lpad8

invoke.cont11:                                    ; preds = %if.end10
  br i1 %cmp6.not, label %if.end19, label %if.then14

if.then14:                                        ; preds = %invoke.cont11
  %beginIndex = getelementptr inbounds i8, ptr %pos, i64 4
  %5 = load <2 x i32>, ptr %fBeginIndex.i, align 4
  store <2 x i32> %5, ptr %beginIndex, align 4
  br label %if.end19

if.end19:                                         ; preds = %if.then14, %invoke.cont11
  store ptr %result, ptr %agg.tmp, align 8
  %call23 = invoke noundef i32 @_ZNK6icu_7513UnicodeString7extractENS_9Char16PtrEiR10UErrorCode(ptr noundef nonnull align 8 dereferenceable(64) %res, ptr noundef nonnull %agg.tmp, i32 noundef %resultLength, ptr noundef nonnull align 4 dereferenceable(4) %status)
          to label %invoke.cont22 unwind label %lpad21

invoke.cont22:                                    ; preds = %if.end19
  %6 = load ptr, ptr %agg.tmp, align 8
  call void asm sideeffect "", "rm,~{memory},~{dirflag},~{fpsr},~{flags}"(ptr %6) #10, !srcloc !4
  call void @_ZN6icu_7513FieldPositionD1Ev(ptr noundef nonnull align 8 dereferenceable(20) %fp) #10
  call void @_ZN6icu_7513UnicodeStringD1Ev(ptr noundef nonnull align 8 dereferenceable(64) %res) #10
  br label %return

lpad21:                                           ; preds = %if.end19
  %7 = landingpad { ptr, i32 }
          cleanup
  %8 = load ptr, ptr %agg.tmp, align 8
  call void asm sideeffect "", "rm,~{memory},~{dirflag},~{fpsr},~{flags}"(ptr %8) #10, !srcloc !4
  br label %ehcleanup

ehcleanup:                                        ; preds = %lpad21, %lpad8
  %.pn = phi { ptr, i32 } [ %7, %lpad21 ], [ %3, %lpad8 ]
  call void @_ZN6icu_7513FieldPositionD1Ev(ptr noundef nonnull align 8 dereferenceable(20) %fp) #10
  br label %ehcleanup24

ehcleanup24:                                      ; preds = %ehcleanup, %lpad
  %.pn.pn = phi { ptr, i32 } [ %.pn, %ehcleanup ], [ %1, %lpad ]
  call void @_ZN6icu_7513UnicodeStringD1Ev(ptr noundef nonnull align 8 dereferenceable(64) %res) #10
  resume { ptr, i32 } %.pn.pn

return:                                           ; preds = %entry, %invoke.cont22
  %retval.0 = phi i32 [ %call23, %invoke.cont22 ], [ -1, %entry ]
  ret i32 %retval.0
}